target datalayout = "e-m:e-p270:32:32-p271:32:32-p272:64:64-i64:64-i128:128-f80:128-n8:16:32:64-S128"
target triple = "x86_64-pc-linux-gnu"

; Function Attrs: nounwind uwtable
define internal i32 @_cmsQuickFloor(double noundef %0) #0 {
  %2 = alloca double, align 8
  store double %0, ptr %2, align 8
  %3 = load double, ptr %2, align 8
  %4 = call double @llvm.floor.f64(double %3)
  %5 = fptosi double %4 to i32
  ret i32 %5
}

; Function Attrs: nounwind uwtable
define internal zeroext i16 @_cmsQuickFloorWord(double noundef %0) #0 {
  %2 = alloca double, align 8
  store double %0, ptr %2, align 8
  %3 = load double, ptr %2, align 8
  %4 = fsub double %3, 3.276700e+04
  %5 = call i32 @_cmsQuickFloor(double noundef %4)
  %6 = trunc i32 %5 to i16
  %7 = zext i16 %6 to i32
  %8 = add i32 %7, 32767
  %9 = trunc i32 %8 to i16
  ret i16 %9
}

; Function Attrs: nounwind uwtable
define internal zeroext i16 @_cmsQuickSaturateWord(double noundef %0) #0 {
  %2 = alloca i16, align 2
  %3 = alloca double, align 8
  store double %0, ptr %3, align 8
  %4 = load double, ptr %3, align 8
  %5 = fadd double %4, 5.000000e-01
  store double %5, ptr %3, align 8
  %6 = load double, ptr %3, align 8
  %7 = fcmp ole double %6, 0.000000e+00
  br i1 %7, label %8, label %9

8:                                                ; preds = %1
  store i16 0, ptr %2, align 2
  br label %16

9:                                                ; preds = %1
  %10 = load double, ptr %3, align 8
  %11 = fcmp oge double %10, 6.553500e+04
  br i1 %11, label %12, label %13

12:                                               ; preds = %9
  store i16 -1, ptr %2, align 2
  br label %16

13:                                               ; preds = %9
  %14 = load double, ptr %3, align 8
  %15 = call zeroext i16 @_cmsQuickFloorWord(double noundef %14)
  store i16 %15, ptr %2, align 2
  br label %16

16:                                               ; preds = %13, %12, %8
  %17 = load i16, ptr %2, align 2
  ret i16 %17
}

; Function Attrs: nounwind uwtable
define internal void @FillSecondShaper(ptr noundef %0, ptr noundef %1, i32 noundef %2) #0 {
  %4 = alloca ptr, align 8
  %5 = alloca ptr, align 8
  %6 = alloca i32, align 4
  %7 = alloca i32, align 4
  %8 = alloca float, align 4
  %9 = alloca float, align 4
  %10 = alloca i16, align 2
  %11 = alloca i8, align 1
  store ptr %0, ptr %4, align 8
  store ptr %1, ptr %5, align 8
  store i32 %2, ptr %6, align 4
  store i32 0, ptr %7, align 4
  br label %12

12:                                               ; preds = %68, %3
  %13 = load i32, ptr %7, align 4
  %14 = icmp slt i32 %13, 16385
  br i1 %14, label %15, label %71

15:                                               ; preds = %12
  %16 = load i32, ptr %7, align 4
  %17 = sitofp i32 %16 to double
  %18 = fdiv double %17, 1.638400e+04
  %19 = fptrunc double %18 to float
  store float %19, ptr %8, align 4
  %20 = load ptr, ptr %5, align 8
  %21 = load float, ptr %8, align 4
  %22 = call float @cmsEvalToneCurveFloat(ptr noundef %20, float noundef %21)
  store float %22, ptr %9, align 4
  %23 = load float, ptr %9, align 4
  %24 = fcmp olt float %23, 0.000000e+00
  br i1 %24, label %25, label %26

25:                                               ; preds = %15
  store float 0.000000e+00, ptr %9, align 4
  br label %26

26:                                               ; preds = %25, %15
  %27 = load float, ptr %9, align 4
  %28 = fpext float %27 to double
  %29 = fcmp ogt double %28, 1.000000e+00
  br i1 %29, label %30, label %31

30:                                               ; preds = %26
  store float 1.000000e+00, ptr %9, align 4
  br label %31

31:                                               ; preds = %30, %26
  %32 = load i32, ptr %6, align 4
  %33 = icmp ne i32 %32, 0
  br i1 %33, label %34, label %58

34:                                               ; preds = %31
  %35 = load float, ptr %9, align 4
  %36 = fpext float %35 to double
  %37 = fmul double %36, 6.553500e+04
  %38 = call zeroext i16 @_cmsQuickSaturateWord(double noundef %37)
  store i16 %38, ptr %10, align 2
  %39 = load i16, ptr %10, align 2
  %40 = zext i16 %39 to i32
  %41 = mul i32 %40, 65281
  %42 = add i32 %41, 8388608
  %43 = lshr i32 %42, 24
  %44 = and i32 %43, 255
  %45 = trunc i32 %44 to i8
  store i8 %45, ptr %11, align 1
  %46 = load i8, ptr %11, align 1
  %47 = zext i8 %46 to i16
  %48 = zext i16 %47 to i32
  %49 = shl i32 %48, 8
  %50 = load i8, ptr %11, align 1
  %51 = zext i8 %50 to i32
  %52 = or i32 %49, %51
  %53 = trunc i32 %52 to i16
  %54 = load ptr, ptr %4, align 8
  %55 = load i32, ptr %7, align 4
  %56 = sext i32 %55 to i64
  %57 = getelementptr inbounds i16, ptr %54, i64 %56
  store i16 %53, ptr %57, align 2
  br label %67

58:                                               ; preds = %31
  %59 = load float, ptr %9, align 4
  %60 = fpext float %59 to double
  %61 = fmul double %60, 6.553500e+04
  %62 = call zeroext i16 @_cmsQuickSaturateWord(double noundef %61)
  %63 = load ptr, ptr %4, align 8
  %64 = load i32, ptr %7, align 4
  %65 = sext i32 %64 to i64
  %66 = getelementptr inbounds i16, ptr %63, i64 %65
  store i16 %62, ptr %66, align 2
  br label %67

67:                                               ; preds = %58, %34
  br label %68

68:                                               ; preds = %67
  %69 = load i32, ptr %7, align 4
  %70 = add nsw i32 %69, 1
  store i32 %70, ptr %7, align 4
  br label %12, !llvm.loop !60

71:                                               ; preds = %12
  ret void
}