; Function Attrs: nounwind uwtable
define internal fastcc void @FillSecondShaper(ptr nocapture noundef writeonly %0, ptr noundef %1, i32 noundef %2) unnamed_addr #0 {
  %.not = icmp eq i32 %2, 0
  br i1 %.not, label %.split.us, label %.split

.split.us:                                        ; preds = %3, %_cmsQuickSaturateWord.exit19.us
  %indvars.iv25 = phi i64 [ %indvars.iv.next26, %_cmsQuickSaturateWord.exit19.us ], [ 0, %3 ]
  %4 = trunc nuw nsw i64 %indvars.iv25 to i32
  %5 = uitofp nneg i32 %4 to double
  %6 = fmul double %5, 0x3F10000000000000
  %7 = fptrunc double %6 to float
  %8 = tail call float @cmsEvalToneCurveFloat(ptr noundef %1, float noundef %7) #10
  %9 = fcmp olt float %8, 0.000000e+00
  %.016.us = select i1 %9, float 0.000000e+00, float %8
  %10 = fcmp ogt float %.016.us, 1.000000e+00
  %.1.us = select i1 %10, float 1.000000e+00, float %.016.us
  %11 = fpext float %.1.us to double
  %12 = fmul double %11, 6.553500e+04
  %13 = fadd double %12, 5.000000e-01
  %14 = fcmp ugt double %13, 0.000000e+00
  br i1 %14, label %15, label %_cmsQuickSaturateWord.exit19.us

15:                                               ; preds = %.split.us
  %16 = fcmp ult double %13, 6.553500e+04
  br i1 %16, label %17, label %_cmsQuickSaturateWord.exit19.us

17:                                               ; preds = %15
  %18 = fadd double %13, -3.276700e+04
  %19 = tail call double @llvm.floor.f64(double %18)
  %20 = fptosi double %19 to i32
  %21 = trunc i32 %20 to i16
  %22 = add i16 %21, 32767
  br label %_cmsQuickSaturateWord.exit19.us

_cmsQuickSaturateWord.exit19.us:                  ; preds = %17, %15, %.split.us
  %.0.i18.us = phi i16 [ %22, %17 ], [ 0, %.split.us ], [ -1, %15 ]
  %23 = getelementptr inbounds i16, ptr %0, i64 %indvars.iv25
  store i16 %.0.i18.us, ptr %23, align 2
  %indvars.iv.next26 = add nuw nsw i64 %indvars.iv25, 1
  %exitcond28.not = icmp eq i64 %indvars.iv.next26, 16385
  br i1 %exitcond28.not, label %.split22.us, label %.split.us, !llvm.loop !62

.split:                                           ; preds = %3, %_cmsQuickSaturateWord.exit
  %indvars.iv = phi i64 [ %indvars.iv.next, %_cmsQuickSaturateWord.exit ], [ 0, %3 ]
  %24 = trunc nuw nsw i64 %indvars.iv to i32
  %25 = uitofp nneg i32 %24 to double
  %26 = fmul double %25, 0x3F10000000000000
  %27 = fptrunc double %26 to float
  %28 = tail call float @cmsEvalToneCurveFloat(ptr noundef %1, float noundef %27) #10
  %29 = fcmp olt float %28, 0.000000e+00
  %.016 = select i1 %29, float 0.000000e+00, float %28
  %30 = fcmp ogt float %.016, 1.000000e+00
  %.1 = select i1 %30, float 1.000000e+00, float %.016
  %31 = fpext float %.1 to double
  %32 = fmul double %31, 6.553500e+04
  %33 = fadd double %32, 5.000000e-01
  %34 = fcmp ugt double %33, 0.000000e+00
  br i1 %34, label %35, label %_cmsQuickSaturateWord.exit

35:                                               ; preds = %.split
  %36 = fcmp ult double %33, 6.553500e+04
  br i1 %36, label %37, label %_cmsQuickSaturateWord.exit

37:                                               ; preds = %35
  %38 = fadd double %33, -3.276700e+04
  %39 = tail call double @llvm.floor.f64(double %38)
  %40 = fptosi double %39 to i32
  %41 = add i32 %40, 32767
  br label %_cmsQuickSaturateWord.exit

_cmsQuickSaturateWord.exit:                       ; preds = %.split, %35, %37
  %.0.i = phi i32 [ %41, %37 ], [ 0, %.split ], [ 65535, %35 ]
  %42 = and i32 %.0.i, 65535
  %43 = mul nuw i32 %42, 65281
  %44 = add nuw i32 %43, 8388608
  %45 = lshr i32 %44, 24
  %46 = trunc nuw nsw i32 %45 to i16
  %47 = mul nuw i16 %46, 257
  %48 = getelementptr inbounds i16, ptr %0, i64 %indvars.iv
  store i16 %47, ptr %48, align 2
  %indvars.iv.next = add nuw nsw i64 %indvars.iv, 1
  %exitcond.not = icmp eq i64 %indvars.iv.next, 16385
  br i1 %exitcond.not, label %.split22.us, label %.split, !llvm.loop !62

.split22.us:                                      ; preds = %_cmsQuickSaturateWord.exit, %_cmsQuickSaturateWord.exit19.us
  ret void
}